target datalayout = "e-m:e-p270:32:32-p271:32:32-p272:64:64-i64:64-i128:128-f80:128-n8:16:32:64-S128"
target triple = "x86_64-pc-linux-gnu"

%struct.tls_buffer_st = type { ptr, i64, i64, i64, i64, i32, i32 }
%struct.tls_rl_record_st = type { i32, i32, i64, i64, i64, ptr, ptr, ptr, i16, [8 x i8] }
%struct.ossl_record_layer_st = type { ptr, ptr, i32, i32, i32, i32, i32, ptr, i16, ptr, ptr, ptr, i64, i32, [33 x %struct.tls_buffer_st], i64, i64, %struct.tls_buffer_st, [32 x %struct.tls_rl_record_st], i64, i64, i64, i32, ptr, i64, [8 x i8], i32, i32, i64, i32, ptr, ptr, i64, ptr, ptr, i32, i32, i32, i64, i64, i64, [64 x i8], i32, i32, i32, ptr, ptr, i32, i32, i64, ptr, ptr, %struct.dtls_bitmap_st, %struct.dtls_bitmap_st, i32, ptr, ptr, ptr, ptr, ptr, i64, ptr }
%struct.dtls_bitmap_st = type { i64, [8 x i8] }
%struct.ossl_record_template_st = type { i8, i32, ptr, i64 }

@.str = private unnamed_addr constant [43 x i8] c"../openssl/ssl/record/methods/tls_common.c\00", align 1
@__func__.tls_prepare_record_header_default = private unnamed_addr constant [34 x i8] c"tls_prepare_record_header_default\00", align 1

; Function Attrs: nounwind uwtable
define i32 @tls_prepare_record_header_default(ptr noundef %0, ptr noundef %1, ptr noundef %2, i8 noundef zeroext %3, ptr noundef %4) #0 {
  %6 = alloca i32, align 4
  %7 = alloca ptr, align 8
  %8 = alloca ptr, align 8
  %9 = alloca ptr, align 8
  %10 = alloca i8, align 1
  %11 = alloca ptr, align 8
  %12 = alloca i64, align 8
  %13 = alloca i32, align 4
  store ptr %0, ptr %7, align 8, !tbaa !16
  store ptr %1, ptr %8, align 8, !tbaa !157
  store ptr %2, ptr %9, align 8, !tbaa !155
  store i8 %3, ptr %10, align 1, !tbaa !91
  store ptr %4, ptr %11, align 8, !tbaa !119
  call void @llvm.lifetime.start.p0(i64 8, ptr %12) #10
  %14 = load ptr, ptr %11, align 8, !tbaa !119
  store ptr null, ptr %14, align 8, !tbaa !15
  %15 = load ptr, ptr %9, align 8, !tbaa !155
  %16 = getelementptr inbounds nuw %struct.ossl_record_template_st, ptr %15, i32 0, i32 3
  %17 = load i64, ptr %16, align 8, !tbaa !163
  store i64 %17, ptr %12, align 8, !tbaa !38
  %18 = load ptr, ptr %7, align 8, !tbaa !16
  %19 = getelementptr inbounds nuw %struct.ossl_record_layer_st, ptr %18, i32 0, i32 34
  %20 = load ptr, ptr %19, align 8, !tbaa !117
  %21 = icmp ne ptr %20, null
  br i1 %21, label %22, label %25

22:                                               ; preds = %5
  %23 = load i64, ptr %12, align 8, !tbaa !38
  %24 = add i64 %23, 1024
  store i64 %24, ptr %12, align 8, !tbaa !38
  br label %25

25:                                               ; preds = %22, %5
  %26 = load ptr, ptr %8, align 8, !tbaa !157
  %27 = load i8, ptr %10, align 1, !tbaa !91
  %28 = zext i8 %27 to i64
  %29 = call i32 @WPACKET_put_bytes__(ptr noundef %26, i64 noundef %28, i64 noundef 1)
  %30 = icmp ne i32 %29, 0
  br i1 %30, label %31, label %64

31:                                               ; preds = %25
  %32 = load ptr, ptr %8, align 8, !tbaa !157
  %33 = load ptr, ptr %9, align 8, !tbaa !155
  %34 = getelementptr inbounds nuw %struct.ossl_record_template_st, ptr %33, i32 0, i32 1
  %35 = load i32, ptr %34, align 4, !tbaa !164
  %36 = zext i32 %35 to i64
  %37 = call i32 @WPACKET_put_bytes__(ptr noundef %32, i64 noundef %36, i64 noundef 2)
  %38 = icmp ne i32 %37, 0
  br i1 %38, label %39, label %64

39:                                               ; preds = %31
  %40 = load ptr, ptr %8, align 8, !tbaa !157
  %41 = call i32 @WPACKET_start_sub_packet_len__(ptr noundef %40, i64 noundef 2)
  %42 = icmp ne i32 %41, 0
  br i1 %42, label %43, label %64

43:                                               ; preds = %39
  %44 = load ptr, ptr %7, align 8, !tbaa !16
  %45 = getelementptr inbounds nuw %struct.ossl_record_layer_st, ptr %44, i32 0, i32 32
  %46 = load i64, ptr %45, align 8, !tbaa !45
  %47 = icmp ugt i64 %46, 0
  br i1 %47, label %48, label %55

48:                                               ; preds = %43
  %49 = load ptr, ptr %8, align 8, !tbaa !157
  %50 = load ptr, ptr %7, align 8, !tbaa !16
  %51 = getelementptr inbounds nuw %struct.ossl_record_layer_st, ptr %50, i32 0, i32 32
  %52 = load i64, ptr %51, align 8, !tbaa !45
  %53 = call i32 @WPACKET_allocate_bytes(ptr noundef %49, i64 noundef %52, ptr noundef null)
  %54 = icmp ne i32 %53, 0
  br i1 %54, label %55, label %64

55:                                               ; preds = %48, %43
  %56 = load i64, ptr %12, align 8, !tbaa !38
  %57 = icmp ugt i64 %56, 0
  br i1 %57, label %58, label %66

58:                                               ; preds = %55
  %59 = load ptr, ptr %8, align 8, !tbaa !157
  %60 = load i64, ptr %12, align 8, !tbaa !38
  %61 = load ptr, ptr %11, align 8, !tbaa !119
  %62 = call i32 @WPACKET_reserve_bytes(ptr noundef %59, i64 noundef %60, ptr noundef %61)
  %63 = icmp ne i32 %62, 0
  br i1 %63, label %66, label %64

64:                                               ; preds = %58, %48, %39, %31, %25
  call void @ERR_new()
  call void @ERR_set_debug(ptr noundef @.str, i32 noundef 1623, ptr noundef @__func__.tls_prepare_record_header_default)
  %65 = load ptr, ptr %7, align 8, !tbaa !16
  call void (ptr, i32, i32, ptr, ...) @ossl_rlayer_fatal(ptr noundef %65, i32 noundef 80, i32 noundef 786691, ptr noundef null)
  store i32 0, ptr %6, align 4
  store i32 1, ptr %13, align 4
  br label %67

66:                                               ; preds = %58, %55
  store i32 1, ptr %6, align 4
  store i32 1, ptr %13, align 4
  br label %67

67:                                               ; preds = %66, %64
  call void @llvm.lifetime.end.p0(i64 8, ptr %12) #10
  %68 = load i32, ptr %6, align 4
  ret i32 %68
}