; Function Attrs: nounwind uwtable
define range(i32 0, 2) i32 @tls_prepare_record_header_default(ptr noundef captures(none) %0, ptr noundef %1, ptr noundef readonly captures(none) %2, i8 noundef zeroext %3, ptr noundef initializes((0, 8)) %4) local_unnamed_addr #0 {
  store ptr null, ptr %4, align 8, !tbaa !27
  %6 = getelementptr inbounds nuw i8, ptr %2, i64 16
  %7 = load i64, ptr %6, align 8, !tbaa !130
  %8 = getelementptr inbounds nuw i8, ptr %0, i64 4160
  %9 = load ptr, ptr %8, align 8, !tbaa !93
  %.not = icmp eq ptr %9, null
  %10 = add i64 %7, 1024
  %spec.select = select i1 %.not, i64 %7, i64 %10
  %11 = zext i8 %3 to i64
  %12 = tail call i32 @WPACKET_put_bytes__(ptr noundef %1, i64 noundef %11, i64 noundef 1) #13
  %.not19 = icmp eq i32 %12, 0
  br i1 %.not19, label %28, label %13

13:                                               ; preds = %5
  %14 = getelementptr inbounds nuw i8, ptr %2, i64 4
  %15 = load i32, ptr %14, align 4, !tbaa !131
  %16 = zext i32 %15 to i64
  %17 = tail call i32 @WPACKET_put_bytes__(ptr noundef %1, i64 noundef %16, i64 noundef 2) #13
  %.not20 = icmp eq i32 %17, 0
  br i1 %.not20, label %28, label %18

18:                                               ; preds = %13
  %19 = tail call i32 @WPACKET_start_sub_packet_len__(ptr noundef %1, i64 noundef 2) #13
  %.not21 = icmp eq i32 %19, 0
  br i1 %.not21, label %28, label %20

20:                                               ; preds = %18
  %21 = getelementptr inbounds nuw i8, ptr %0, i64 4144
  %22 = load i64, ptr %21, align 8, !tbaa !32
  %.not22 = icmp eq i64 %22, 0
  br i1 %.not22, label %25, label %23

23:                                               ; preds = %20
  %24 = tail call i32 @WPACKET_allocate_bytes(ptr noundef %1, i64 noundef %22, ptr noundef null) #13
  %.not23 = icmp eq i32 %24, 0
  br i1 %.not23, label %28, label %25

25:                                               ; preds = %23, %20
  %.not24 = icmp eq i64 %spec.select, 0
  br i1 %.not24, label %29, label %26

26:                                               ; preds = %25
  %27 = tail call i32 @WPACKET_reserve_bytes(ptr noundef %1, i64 noundef %spec.select, ptr noundef nonnull %4) #13
  %.not25 = icmp eq i32 %27, 0
  br i1 %.not25, label %28, label %29

28:                                               ; preds = %26, %23, %18, %13, %5
  tail call void @ERR_new() #13
  tail call void @ERR_set_debug(ptr noundef nonnull @.str, i32 noundef 1623, ptr noundef nonnull @__func__.tls_prepare_record_header_default) #13
  tail call void (ptr, i32, i32, ptr, ...) @ossl_rlayer_fatal(ptr noundef nonnull %0, i32 noundef 80, i32 noundef 786691, ptr noundef null)
  br label %29

29:                                               ; preds = %25, %26, %28
  %.017 = phi i32 [ 0, %28 ], [ 1, %26 ], [ 1, %25 ]
  ret i32 %.017
}